; Function Attrs: nounwind uwtable
define dso_local void @sq_quote_argv(ptr noundef %0, ptr noundef readonly captures(none) %1) local_unnamed_addr #0 {
  tail call void @strbuf_grow(ptr noundef %0, i64 noundef 255) #12
  %3 = load ptr, ptr %1, align 8, !tbaa !17
  %.not7 = icmp eq ptr %3, null
  br i1 %.not7, label %._crit_edge, label %.lr.ph

.lr.ph:                                           ; preds = %2
  %4 = getelementptr inbounds nuw i8, ptr %0, i64 8
  %5 = getelementptr inbounds nuw i8, ptr %0, i64 16
  br label %6

6:                                                ; preds = %.lr.ph, %strbuf_addch.exit
  %indvars.iv = phi i64 [ 0, %.lr.ph ], [ %indvars.iv.next, %strbuf_addch.exit ]
  %7 = getelementptr inbounds nuw ptr, ptr %1, i64 %indvars.iv
  %8 = load i64, ptr %0, align 8, !tbaa !11
  %.not.i.i = icmp eq i64 %8, 0
  br i1 %.not.i.i, label %strbuf_avail.exit.thread.i, label %strbuf_avail.exit.i

strbuf_avail.exit.i:                              ; preds = %6
  %9 = load i64, ptr %4, align 8, !tbaa !12
  %.neg.i = add i64 %9, 1
  %.not.i = icmp eq i64 %8, %.neg.i
  br i1 %.not.i, label %strbuf_avail.exit.thread.i, label %strbuf_addch.exit

strbuf_avail.exit.thread.i:                       ; preds = %strbuf_avail.exit.i, %6
  tail call void @strbuf_grow(ptr noundef nonnull %0, i64 noundef 1) #12
  %.pre.i = load i64, ptr %4, align 8, !tbaa !12
  %.pre7.i = add i64 %.pre.i, 1
  br label %strbuf_addch.exit

strbuf_addch.exit:                                ; preds = %strbuf_avail.exit.i, %strbuf_avail.exit.thread.i
  %.pre-phi.i = phi i64 [ %.pre7.i, %strbuf_avail.exit.thread.i ], [ %.neg.i, %strbuf_avail.exit.i ]
  %10 = phi i64 [ %.pre.i, %strbuf_avail.exit.thread.i ], [ %9, %strbuf_avail.exit.i ]
  %11 = load ptr, ptr %5, align 8, !tbaa !4
  store i64 %.pre-phi.i, ptr %4, align 8, !tbaa !12
  %12 = getelementptr inbounds nuw i8, ptr %11, i64 %10
  store i8 32, ptr %12, align 1, !tbaa !13
  %13 = load ptr, ptr %5, align 8, !tbaa !4
  %14 = load i64, ptr %4, align 8, !tbaa !12
  %15 = getelementptr inbounds nuw i8, ptr %13, i64 %14
  store i8 0, ptr %15, align 1, !tbaa !13
  %16 = load ptr, ptr %7, align 8, !tbaa !17
  tail call void @sq_quote_buf(ptr noundef nonnull %0, ptr noundef %16)
  %indvars.iv.next = add nuw nsw i64 %indvars.iv, 1
  %17 = getelementptr inbounds nuw ptr, ptr %1, i64 %indvars.iv.next
  %18 = load ptr, ptr %17, align 8, !tbaa !17
  %.not = icmp eq ptr %18, null
  br i1 %.not, label %._crit_edge, label %6, !llvm.loop !18

._crit_edge:                                      ; preds = %strbuf_addch.exit, %2
  ret void
}